target datalayout = "e-m:e-p270:32:32-p271:32:32-p272:64:64-i64:64-i128:128-f80:128-n8:16:32:64-S128"
target triple = "x86_64-pc-linux-gnu"

%struct.ImVec2 = type { float, float }
%struct.ImVector = type { i32, i32, ptr }

; Function Attrs: inlinehint mustprogress uwtable
define linkonce_odr dso_local void @_ZN8ImVectorI6ImVec2E7reserveEi(ptr noundef nonnull align 8 dereferenceable(16) %0, i32 noundef %1) #5 comdat align 2 {
  %3 = alloca ptr, align 8
  %4 = alloca i32, align 4
  %5 = alloca ptr, align 8
  store ptr %0, ptr %3, align 8, !tbaa !36
  store i32 %1, ptr %4, align 4, !tbaa !21
  %6 = load ptr, ptr %3, align 8
  %7 = load i32, ptr %4, align 4, !tbaa !21
  %8 = getelementptr inbounds nuw %struct.ImVector, ptr %6, i32 0, i32 1
  %9 = load i32, ptr %8, align 4, !tbaa !38
  %10 = icmp sle i32 %7, %9
  br i1 %10, label %11, label %12

11:                                               ; preds = %2
  br label %35

12:                                               ; preds = %2
  call void @llvm.lifetime.start.p0(i64 8, ptr %5) #17
  %13 = load i32, ptr %4, align 4, !tbaa !21
  %14 = sext i32 %13 to i64
  %15 = mul i64 %14, 8
  %16 = call noundef ptr @_ZN5ImGui8MemAllocEm(i64 noundef %15)
  store ptr %16, ptr %5, align 8, !tbaa !33
  %17 = getelementptr inbounds nuw %struct.ImVector, ptr %6, i32 0, i32 2
  %18 = load ptr, ptr %17, align 8, !tbaa !40
  %19 = icmp ne ptr %18, null
  br i1 %19, label %20, label %30

20:                                               ; preds = %12
  %21 = load ptr, ptr %5, align 8, !tbaa !33
  %22 = getelementptr inbounds nuw %struct.ImVector, ptr %6, i32 0, i32 2
  %23 = load ptr, ptr %22, align 8, !tbaa !40
  %24 = getelementptr inbounds nuw %struct.ImVector, ptr %6, i32 0, i32 0
  %25 = load i32, ptr %24, align 8, !tbaa !39
  %26 = sext i32 %25 to i64
  %27 = mul i64 %26, 8
  call void @llvm.memcpy.p0.p0.i64(ptr align 4 %21, ptr align 4 %23, i64 %27, i1 false)
  %28 = getelementptr inbounds nuw %struct.ImVector, ptr %6, i32 0, i32 2
  %29 = load ptr, ptr %28, align 8, !tbaa !40
  call void @_ZN5ImGui7MemFreeEPv(ptr noundef %29)
  br label %30

30:                                               ; preds = %20, %12
  %31 = load ptr, ptr %5, align 8, !tbaa !33
  %32 = getelementptr inbounds nuw %struct.ImVector, ptr %6, i32 0, i32 2
  store ptr %31, ptr %32, align 8, !tbaa !40
  %33 = load i32, ptr %4, align 4, !tbaa !21
  %34 = getelementptr inbounds nuw %struct.ImVector, ptr %6, i32 0, i32 1
  store i32 %33, ptr %34, align 4, !tbaa !38
  call void @llvm.lifetime.end.p0(i64 8, ptr %5) #17
  br label %35

35:                                               ; preds = %30, %11
  ret void
}

; Function Attrs: inlinehint mustprogress nounwind uwtable
define linkonce_odr dso_local noundef i32 @_ZNK8ImVectorI6ImVec2E14_grow_capacityEi(ptr noundef nonnull align 8 dereferenceable(16) %0, i32 noundef %1) #7 comdat align 2 {
  %3 = alloca ptr, align 8
  %4 = alloca i32, align 4
  %5 = alloca i32, align 4
  store ptr %0, ptr %3, align 8, !tbaa !36
  store i32 %1, ptr %4, align 4, !tbaa !21
  %6 = load ptr, ptr %3, align 8
  call void @llvm.lifetime.start.p0(i64 4, ptr %5) #17
  %7 = getelementptr inbounds nuw %struct.ImVector, ptr %6, i32 0, i32 1
  %8 = load i32, ptr %7, align 4, !tbaa !38
  %9 = icmp ne i32 %8, 0
  br i1 %9, label %10, label %17

10:                                               ; preds = %2
  %11 = getelementptr inbounds nuw %struct.ImVector, ptr %6, i32 0, i32 1
  %12 = load i32, ptr %11, align 4, !tbaa !38
  %13 = getelementptr inbounds nuw %struct.ImVector, ptr %6, i32 0, i32 1
  %14 = load i32, ptr %13, align 4, !tbaa !38
  %15 = sdiv i32 %14, 2
  %16 = add nsw i32 %12, %15
  br label %18

17:                                               ; preds = %2
  br label %18

18:                                               ; preds = %17, %10
  %19 = phi i32 [ %16, %10 ], [ 8, %17 ]
  store i32 %19, ptr %5, align 4, !tbaa !21
  %20 = load i32, ptr %5, align 4, !tbaa !21
  %21 = load i32, ptr %4, align 4, !tbaa !21
  %22 = icmp sgt i32 %20, %21
  br i1 %22, label %23, label %25

23:                                               ; preds = %18
  %24 = load i32, ptr %5, align 4, !tbaa !21
  br label %27

25:                                               ; preds = %18
  %26 = load i32, ptr %4, align 4, !tbaa !21
  br label %27

27:                                               ; preds = %25, %23
  %28 = phi i32 [ %24, %23 ], [ %26, %25 ]
  call void @llvm.lifetime.end.p0(i64 4, ptr %5) #17
  ret i32 %28
}

; Function Attrs: inlinehint mustprogress uwtable
define linkonce_odr dso_local void @_ZN8ImVectorI6ImVec2E9push_backERKS0_(ptr noundef nonnull align 8 dereferenceable(16) %0, ptr noundef nonnull align 4 dereferenceable(8) %1) #5 comdat align 2 {
  %3 = alloca ptr, align 8
  %4 = alloca ptr, align 8
  store ptr %0, ptr %3, align 8, !tbaa !36
  store ptr %1, ptr %4, align 8, !tbaa !33
  %5 = load ptr, ptr %3, align 8
  %6 = getelementptr inbounds nuw %struct.ImVector, ptr %5, i32 0, i32 0
  %7 = load i32, ptr %6, align 8, !tbaa !39
  %8 = getelementptr inbounds nuw %struct.ImVector, ptr %5, i32 0, i32 1
  %9 = load i32, ptr %8, align 4, !tbaa !38
  %10 = icmp eq i32 %7, %9
  br i1 %10, label %11, label %16

11:                                               ; preds = %2
  %12 = getelementptr inbounds nuw %struct.ImVector, ptr %5, i32 0, i32 0
  %13 = load i32, ptr %12, align 8, !tbaa !39
  %14 = add nsw i32 %13, 1
  %15 = call noundef i32 @_ZNK8ImVectorI6ImVec2E14_grow_capacityEi(ptr noundef nonnull align 8 dereferenceable(16) %5, i32 noundef %14)
  call void @_ZN8ImVectorI6ImVec2E7reserveEi(ptr noundef nonnull align 8 dereferenceable(16) %5, i32 noundef %15)
  br label %16

16:                                               ; preds = %11, %2
  %17 = getelementptr inbounds nuw %struct.ImVector, ptr %5, i32 0, i32 2
  %18 = load ptr, ptr %17, align 8, !tbaa !40
  %19 = getelementptr inbounds nuw %struct.ImVector, ptr %5, i32 0, i32 0
  %20 = load i32, ptr %19, align 8, !tbaa !39
  %21 = sext i32 %20 to i64
  %22 = getelementptr inbounds %struct.ImVec2, ptr %18, i64 %21
  %23 = load ptr, ptr %4, align 8, !tbaa !33
  call void @llvm.memcpy.p0.p0.i64(ptr align 4 %22, ptr align 4 %23, i64 8, i1 false)
  %24 = getelementptr inbounds nuw %struct.ImVector, ptr %5, i32 0, i32 0
  %25 = load i32, ptr %24, align 8, !tbaa !39
  %26 = add nsw i32 %25, 1
  store i32 %26, ptr %24, align 8, !tbaa !39
  ret void
}

; Function Attrs: mustprogress nounwind uwtable
define linkonce_odr dso_local void @_ZN6ImVec2C2Eff(ptr noundef nonnull align 4 dereferenceable(8) %0, float noundef %1, float noundef %2) unnamed_addr #3 comdat align 2 {
  %4 = alloca ptr, align 8
  %5 = alloca float, align 4
  %6 = alloca float, align 4
  store ptr %0, ptr %4, align 8, !tbaa !33
  store float %1, ptr %5, align 4, !tbaa !12
  store float %2, ptr %6, align 4, !tbaa !12
  %7 = load ptr, ptr %4, align 8
  %8 = getelementptr inbounds nuw %struct.ImVec2, ptr %7, i32 0, i32 0
  %9 = load float, ptr %5, align 4, !tbaa !12
  store float %9, ptr %8, align 4, !tbaa !34
  %10 = getelementptr inbounds nuw %struct.ImVec2, ptr %7, i32 0, i32 1
  %11 = load float, ptr %6, align 4, !tbaa !12
  store float %11, ptr %10, align 4, !tbaa !35
  ret void
}

; Function Attrs: mustprogress uwtable
define internal void @_ZL35PathBezierQuadraticCurveToCasteljauP8ImVectorI6ImVec2Efffffffi(ptr noundef %0, float noundef %1, float noundef %2, float noundef %3, float noundef %4, float noundef %5, float noundef %6, float noundef %7, i32 noundef %8) #6 {
  %10 = alloca ptr, align 8
  %11 = alloca float, align 4
  %12 = alloca float, align 4
  %13 = alloca float, align 4
  %14 = alloca float, align 4
  %15 = alloca float, align 4
  %16 = alloca float, align 4
  %17 = alloca float, align 4
  %18 = alloca i32, align 4
  %19 = alloca float, align 4
  %20 = alloca float, align 4
  %21 = alloca float, align 4
  %22 = alloca %struct.ImVec2, align 4
  %23 = alloca float, align 4
  %24 = alloca float, align 4
  %25 = alloca float, align 4
  %26 = alloca float, align 4
  %27 = alloca float, align 4
  %28 = alloca float, align 4
  store ptr %0, ptr %10, align 8, !tbaa !36
  store float %1, ptr %11, align 4, !tbaa !12
  store float %2, ptr %12, align 4, !tbaa !12
  store float %3, ptr %13, align 4, !tbaa !12
  store float %4, ptr %14, align 4, !tbaa !12
  store float %5, ptr %15, align 4, !tbaa !12
  store float %6, ptr %16, align 4, !tbaa !12
  store float %7, ptr %17, align 4, !tbaa !12
  store i32 %8, ptr %18, align 4, !tbaa !21
  call void @llvm.lifetime.start.p0(i64 4, ptr %19) #17
  %29 = load float, ptr %15, align 4, !tbaa !12
  %30 = load float, ptr %11, align 4, !tbaa !12
  %31 = fsub float %29, %30
  store float %31, ptr %19, align 4, !tbaa !12
  call void @llvm.lifetime.start.p0(i64 4, ptr %20) #17
  %32 = load float, ptr %16, align 4, !tbaa !12
  %33 = load float, ptr %12, align 4, !tbaa !12
  %34 = fsub float %32, %33
  store float %34, ptr %20, align 4, !tbaa !12
  call void @llvm.lifetime.start.p0(i64 4, ptr %21) #17
  %35 = load float, ptr %13, align 4, !tbaa !12
  %36 = load float, ptr %15, align 4, !tbaa !12
  %37 = fsub float %35, %36
  %38 = load float, ptr %20, align 4, !tbaa !12
  %39 = fmul float %37, %38
  %40 = load float, ptr %14, align 4, !tbaa !12
  %41 = load float, ptr %16, align 4, !tbaa !12
  %42 = fsub float %40, %41
  %43 = load float, ptr %19, align 4, !tbaa !12
  %44 = fmul float %42, %43
  %45 = fsub float %39, %44
  store float %45, ptr %21, align 4, !tbaa !12
  %46 = load float, ptr %21, align 4, !tbaa !12
  %47 = load float, ptr %21, align 4, !tbaa !12
  %48 = fmul float %46, %47
  %49 = fmul float %48, 4.000000e+00
  %50 = load float, ptr %17, align 4, !tbaa !12
  %51 = load float, ptr %19, align 4, !tbaa !12
  %52 = load float, ptr %19, align 4, !tbaa !12
  %53 = fmul float %51, %52
  %54 = load float, ptr %20, align 4, !tbaa !12
  %55 = load float, ptr %20, align 4, !tbaa !12
  %56 = fmul float %54, %55
  %57 = fadd float %53, %56
  %58 = fmul float %50, %57
  %59 = fcmp olt float %49, %58
  br i1 %59, label %60, label %64

60:                                               ; preds = %9
  %61 = load ptr, ptr %10, align 8, !tbaa !36
  call void @llvm.lifetime.start.p0(i64 8, ptr %22) #17
  %62 = load float, ptr %15, align 4, !tbaa !12
  %63 = load float, ptr %16, align 4, !tbaa !12
  call void @_ZN6ImVec2C2Eff(ptr noundef nonnull align 4 dereferenceable(8) %22, float noundef %62, float noundef %63)
  call void @_ZN8ImVectorI6ImVec2E9push_backERKS0_(ptr noundef nonnull align 8 dereferenceable(16) %61, ptr noundef nonnull align 4 dereferenceable(8) %22)
  call void @llvm.lifetime.end.p0(i64 8, ptr %22) #17
  br label %113

64:                                               ; preds = %9
  %65 = load i32, ptr %18, align 4, !tbaa !21
  %66 = icmp slt i32 %65, 10
  br i1 %66, label %67, label %112

67:                                               ; preds = %64
  call void @llvm.lifetime.start.p0(i64 4, ptr %23) #17
  %68 = load float, ptr %11, align 4, !tbaa !12
  %69 = load float, ptr %13, align 4, !tbaa !12
  %70 = fadd float %68, %69
  %71 = fmul float %70, 5.000000e-01
  store float %71, ptr %23, align 4, !tbaa !12
  call void @llvm.lifetime.start.p0(i64 4, ptr %24) #17
  %72 = load float, ptr %12, align 4, !tbaa !12
  %73 = load float, ptr %14, align 4, !tbaa !12
  %74 = fadd float %72, %73
  %75 = fmul float %74, 5.000000e-01
  store float %75, ptr %24, align 4, !tbaa !12
  call void @llvm.lifetime.start.p0(i64 4, ptr %25) #17
  %76 = load float, ptr %13, align 4, !tbaa !12
  %77 = load float, ptr %15, align 4, !tbaa !12
  %78 = fadd float %76, %77
  %79 = fmul float %78, 5.000000e-01
  store float %79, ptr %25, align 4, !tbaa !12
  call void @llvm.lifetime.start.p0(i64 4, ptr %26) #17
  %80 = load float, ptr %14, align 4, !tbaa !12
  %81 = load float, ptr %16, align 4, !tbaa !12
  %82 = fadd float %80, %81
  %83 = fmul float %82, 5.000000e-01
  store float %83, ptr %26, align 4, !tbaa !12
  call void @llvm.lifetime.start.p0(i64 4, ptr %27) #17
  %84 = load float, ptr %23, align 4, !tbaa !12
  %85 = load float, ptr %25, align 4, !tbaa !12
  %86 = fadd float %84, %85
  %87 = fmul float %86, 5.000000e-01
  store float %87, ptr %27, align 4, !tbaa !12
  call void @llvm.lifetime.start.p0(i64 4, ptr %28) #17
  %88 = load float, ptr %24, align 4, !tbaa !12
  %89 = load float, ptr %26, align 4, !tbaa !12
  %90 = fadd float %88, %89
  %91 = fmul float %90, 5.000000e-01
  store float %91, ptr %28, align 4, !tbaa !12
  %92 = load ptr, ptr %10, align 8, !tbaa !36
  %93 = load float, ptr %11, align 4, !tbaa !12
  %94 = load float, ptr %12, align 4, !tbaa !12
  %95 = load float, ptr %23, align 4, !tbaa !12
  %96 = load float, ptr %24, align 4, !tbaa !12
  %97 = load float, ptr %27, align 4, !tbaa !12
  %98 = load float, ptr %28, align 4, !tbaa !12
  %99 = load float, ptr %17, align 4, !tbaa !12
  %100 = load i32, ptr %18, align 4, !tbaa !21
  %101 = add nsw i32 %100, 1
  call void @_ZL35PathBezierQuadraticCurveToCasteljauP8ImVectorI6ImVec2Efffffffi(ptr noundef %92, float noundef %93, float noundef %94, float noundef %95, float noundef %96, float noundef %97, float noundef %98, float noundef %99, i32 noundef %101)
  %102 = load ptr, ptr %10, align 8, !tbaa !36
  %103 = load float, ptr %27, align 4, !tbaa !12
  %104 = load float, ptr %28, align 4, !tbaa !12
  %105 = load float, ptr %25, align 4, !tbaa !12
  %106 = load float, ptr %26, align 4, !tbaa !12
  %107 = load float, ptr %15, align 4, !tbaa !12
  %108 = load float, ptr %16, align 4, !tbaa !12
  %109 = load float, ptr %17, align 4, !tbaa !12
  %110 = load i32, ptr %18, align 4, !tbaa !21
  %111 = add nsw i32 %110, 1
  call void @_ZL35PathBezierQuadraticCurveToCasteljauP8ImVectorI6ImVec2Efffffffi(ptr noundef %102, float noundef %103, float noundef %104, float noundef %105, float noundef %106, float noundef %107, float noundef %108, float noundef %109, i32 noundef %111)
  call void @llvm.lifetime.end.p0(i64 4, ptr %28) #17
  call void @llvm.lifetime.end.p0(i64 4, ptr %27) #17
  call void @llvm.lifetime.end.p0(i64 4, ptr %26) #17
  call void @llvm.lifetime.end.p0(i64 4, ptr %25) #17
  call void @llvm.lifetime.end.p0(i64 4, ptr %24) #17
  call void @llvm.lifetime.end.p0(i64 4, ptr %23) #17
  br label %112

112:                                              ; preds = %67, %64
  br label %113

113:                                              ; preds = %112, %60
  call void @llvm.lifetime.end.p0(i64 4, ptr %21) #17
  call void @llvm.lifetime.end.p0(i64 4, ptr %20) #17
  call void @llvm.lifetime.end.p0(i64 4, ptr %19) #17
  ret void
}