; Function Attrs: mustprogress uwtable
define internal fastcc void @_ZL35PathBezierQuadraticCurveToCasteljauP8ImVectorI6ImVec2Efffffffi(ptr noundef nonnull captures(none) %0, float noundef %1, float noundef %2, float noundef %3, float noundef %4, float noundef %5, float noundef %6, float noundef %7, i32 noundef range(i32 0, 11) %8) unnamed_addr #9 {
  %10 = fsub float %5, %1
  %11 = fsub float %6, %2
  %12 = fsub float %3, %5
  %13 = fmul float %11, %12
  %14 = fsub float %4, %6
  %15 = fmul float %10, %14
  %16 = fsub float %13, %15
  %17 = fmul float %16, %16
  %18 = fmul float %17, 4.000000e+00
  %19 = fmul float %10, %10
  %20 = fmul float %11, %11
  %21 = fadd float %19, %20
  %22 = fmul float %7, %21
  %23 = fcmp olt float %18, %22
  br i1 %23, label %tailrecurse._crit_edge, label %.lr.ph

tailrecurse._crit_edge:                           ; preds = %tailrecurse, %9
  %24 = load i32, ptr %0, align 8, !tbaa !62
  %25 = getelementptr inbounds nuw i8, ptr %0, i64 4
  %26 = load i32, ptr %25, align 4, !tbaa !60
  %27 = icmp eq i32 %24, %26
  br i1 %27, label %28, label %._ZN8ImVectorI6ImVec2E7reserveEi.exit_crit_edge.i

._ZN8ImVectorI6ImVec2E7reserveEi.exit_crit_edge.i: ; preds = %tailrecurse._crit_edge
  %.phi.trans.insert.i = getelementptr inbounds nuw i8, ptr %0, i64 8
  %.pre.i = load ptr, ptr %.phi.trans.insert.i, align 8, !tbaa !61
  br label %_ZN8ImVectorI6ImVec2E9push_backERKS0_.exit

28:                                               ; preds = %tailrecurse._crit_edge
  %29 = add nsw i32 %24, 1
  %.not.i.i = icmp eq i32 %24, 0
  br i1 %.not.i.i, label %_ZNK8ImVectorI6ImVec2E14_grow_capacityEi.exit.i, label %30

30:                                               ; preds = %28
  %31 = sdiv i32 %24, 2
  %32 = add nsw i32 %31, %24
  br label %_ZNK8ImVectorI6ImVec2E14_grow_capacityEi.exit.i

_ZNK8ImVectorI6ImVec2E14_grow_capacityEi.exit.i:  ; preds = %30, %28
  %33 = phi i32 [ %32, %30 ], [ 8, %28 ]
  %34 = tail call noundef i32 @llvm.smax.i32(i32 %33, i32 %29)
  %35 = sext i32 %34 to i64
  %36 = shl nsw i64 %35, 3
  %37 = tail call noundef ptr @_ZN5ImGui8MemAllocEm(i64 noundef %36)
  %38 = getelementptr inbounds nuw i8, ptr %0, i64 8
  %39 = load ptr, ptr %38, align 8, !tbaa !61
  %.not6.i.i = icmp eq ptr %39, null
  br i1 %.not6.i.i, label %45, label %40

40:                                               ; preds = %_ZNK8ImVectorI6ImVec2E14_grow_capacityEi.exit.i
  %41 = load i32, ptr %0, align 8, !tbaa !62
  %42 = sext i32 %41 to i64
  %43 = shl nsw i64 %42, 3
  tail call void @llvm.memcpy.p0.p0.i64(ptr align 4 %37, ptr nonnull align 4 %39, i64 %43, i1 false)
  %44 = load ptr, ptr %38, align 8, !tbaa !61
  tail call void @_ZN5ImGui7MemFreeEPv(ptr noundef %44)
  br label %45

45:                                               ; preds = %40, %_ZNK8ImVectorI6ImVec2E14_grow_capacityEi.exit.i
  store ptr %37, ptr %38, align 8, !tbaa !61
  store i32 %34, ptr %25, align 4, !tbaa !60
  %.pre3.i = load i32, ptr %0, align 8, !tbaa !62
  br label %_ZN8ImVectorI6ImVec2E9push_backERKS0_.exit

_ZN8ImVectorI6ImVec2E9push_backERKS0_.exit:       ; preds = %._ZN8ImVectorI6ImVec2E7reserveEi.exit_crit_edge.i, %45
  %46 = phi i32 [ %24, %._ZN8ImVectorI6ImVec2E7reserveEi.exit_crit_edge.i ], [ %.pre3.i, %45 ]
  %47 = phi ptr [ %.pre.i, %._ZN8ImVectorI6ImVec2E7reserveEi.exit_crit_edge.i ], [ %37, %45 ]
  %48 = sext i32 %46 to i64
  %49 = getelementptr inbounds %struct.ImVec2, ptr %47, i64 %48
  store float %5, ptr %49, align 4
  %.sroa_idx50 = getelementptr inbounds nuw i8, ptr %49, i64 4
  store float %6, ptr %.sroa_idx50, align 4
  %50 = load i32, ptr %0, align 8, !tbaa !62
  %51 = add nsw i32 %50, 1
  store i32 %51, ptr %0, align 8, !tbaa !62
  br label %.loopexit

.lr.ph:                                           ; preds = %9, %tailrecurse
  %.tr5863 = phi i32 [ %64, %tailrecurse ], [ %8, %9 ]
  %.tr5462 = phi float [ %59, %tailrecurse ], [ %4, %9 ]
  %.tr5361 = phi float [ %57, %tailrecurse ], [ %3, %9 ]
  %.tr5260 = phi float [ %63, %tailrecurse ], [ %2, %9 ]
  %.tr5159 = phi float [ %61, %tailrecurse ], [ %1, %9 ]
  %exitcond.not = icmp eq i32 %.tr5863, 10
  br i1 %exitcond.not, label %.loopexit, label %tailrecurse

tailrecurse:                                      ; preds = %.lr.ph
  %52 = fadd float %.tr5159, %.tr5361
  %53 = fmul float %52, 5.000000e-01
  %54 = fadd float %.tr5260, %.tr5462
  %55 = fmul float %54, 5.000000e-01
  %56 = fadd float %5, %.tr5361
  %57 = fmul float %56, 5.000000e-01
  %58 = fadd float %6, %.tr5462
  %59 = fmul float %58, 5.000000e-01
  %60 = fadd float %53, %57
  %61 = fmul float %60, 5.000000e-01
  %62 = fadd float %55, %59
  %63 = fmul float %62, 5.000000e-01
  %64 = add nuw nsw i32 %.tr5863, 1
  tail call fastcc void @_ZL35PathBezierQuadraticCurveToCasteljauP8ImVectorI6ImVec2Efffffffi(ptr noundef %0, float noundef %.tr5159, float noundef %.tr5260, float noundef %53, float noundef %55, float noundef %61, float noundef %63, float noundef %7, i32 noundef %64)
  %65 = fsub float %5, %61
  %66 = fsub float %6, %63
  %67 = fsub float %57, %5
  %68 = fmul float %66, %67
  %69 = fsub float %59, %6
  %70 = fmul float %65, %69
  %71 = fsub float %68, %70
  %72 = fmul float %71, %71
  %73 = fmul float %72, 4.000000e+00
  %74 = fmul float %65, %65
  %75 = fmul float %66, %66
  %76 = fadd float %74, %75
  %77 = fmul float %7, %76
  %78 = fcmp olt float %73, %77
  br i1 %78, label %tailrecurse._crit_edge, label %.lr.ph

.loopexit:                                        ; preds = %.lr.ph, %_ZN8ImVectorI6ImVec2E9push_backERKS0_.exit
  ret void
}